target datalayout = "e-m:e-p270:32:32-p271:32:32-p272:64:64-i64:64-i128:128-f80:128-n8:16:32:64-S128"
target triple = "x86_64-pc-linux-gnu"

%struct.ossl_store_loader_ctx_st = type { ptr, ptr, i32, i32 }

@.str.1 = private unnamed_addr constant [20 x i8] c"org.openssl.engine:\00", align 1
@.str.2 = private unnamed_addr constant [36 x i8] c"../openssl/apps/lib/engine_loader.c\00", align 1

; Function Attrs: nounwind uwtable
define internal ptr @OSSL_STORE_LOADER_CTX_new(ptr noundef %0, ptr noundef %1) #0 {
  %3 = alloca ptr, align 8
  %4 = alloca ptr, align 8
  %5 = alloca ptr, align 8
  store ptr %0, ptr %3, align 8, !tbaa !13
  store ptr %1, ptr %4, align 8, !tbaa !8
  call void @llvm.lifetime.start.p0(i64 8, ptr %5) #5
  %6 = call noalias ptr @CRYPTO_zalloc(i64 noundef 24, ptr noundef @.str.2, i32 noundef 47)
  store ptr %6, ptr %5, align 8, !tbaa !15
  %7 = load ptr, ptr %5, align 8, !tbaa !15
  %8 = icmp ne ptr %7, null
  br i1 %8, label %9, label %16

9:                                                ; preds = %2
  %10 = load ptr, ptr %3, align 8, !tbaa !13
  %11 = load ptr, ptr %5, align 8, !tbaa !15
  %12 = getelementptr inbounds nuw %struct.ossl_store_loader_ctx_st, ptr %11, i32 0, i32 0
  store ptr %10, ptr %12, align 8, !tbaa !29
  %13 = load ptr, ptr %4, align 8, !tbaa !8
  %14 = load ptr, ptr %5, align 8, !tbaa !15
  %15 = getelementptr inbounds nuw %struct.ossl_store_loader_ctx_st, ptr %14, i32 0, i32 1
  store ptr %13, ptr %15, align 8, !tbaa !30
  br label %16

16:                                               ; preds = %9, %2
  %17 = load ptr, ptr %5, align 8, !tbaa !15
  call void @llvm.lifetime.end.p0(i64 8, ptr %5) #5
  ret ptr %17
}

; Function Attrs: nounwind uwtable
define internal ptr @engine_open(ptr noundef %0, ptr noundef %1, ptr noundef %2, ptr noundef %3) #0 {
  %5 = alloca ptr, align 8
  %6 = alloca ptr, align 8
  %7 = alloca ptr, align 8
  %8 = alloca ptr, align 8
  %9 = alloca ptr, align 8
  %10 = alloca ptr, align 8
  %11 = alloca ptr, align 8
  %12 = alloca ptr, align 8
  %13 = alloca ptr, align 8
  %14 = alloca ptr, align 8
  %15 = alloca i32, align 4
  %16 = alloca [256 x i8], align 16
  %17 = alloca i64, align 8
  store ptr %0, ptr %6, align 8, !tbaa !3
  store ptr %1, ptr %7, align 8, !tbaa !8
  store ptr %2, ptr %8, align 8, !tbaa !10
  store ptr %3, ptr %9, align 8, !tbaa !12
  call void @llvm.lifetime.start.p0(i64 8, ptr %10) #5
  %18 = load ptr, ptr %7, align 8, !tbaa !8
  store ptr %18, ptr %10, align 8, !tbaa !8
  call void @llvm.lifetime.start.p0(i64 8, ptr %11) #5
  call void @llvm.lifetime.start.p0(i64 8, ptr %12) #5
  store ptr null, ptr %12, align 8, !tbaa !13
  call void @llvm.lifetime.start.p0(i64 8, ptr %13) #5
  store ptr null, ptr %13, align 8, !tbaa !8
  call void @llvm.lifetime.start.p0(i64 8, ptr %14) #5
  store ptr null, ptr %14, align 8, !tbaa !15
  %19 = load ptr, ptr %10, align 8, !tbaa !8
  %20 = call i32 @OPENSSL_strncasecmp(ptr noundef %19, ptr noundef @.str.1, i64 noundef 19)
  %21 = icmp eq i32 %20, 0
  br i1 %21, label %22, label %25

22:                                               ; preds = %4
  %23 = load ptr, ptr %10, align 8, !tbaa !8
  %24 = getelementptr inbounds nuw i8, ptr %23, i64 19
  store ptr %24, ptr %10, align 8, !tbaa !8
  br i1 true, label %27, label %26

25:                                               ; preds = %4
  br i1 false, label %27, label %26

26:                                               ; preds = %25, %22
  store ptr null, ptr %5, align 8
  store i32 1, ptr %15, align 4
  br label %80

27:                                               ; preds = %25, %22
  %28 = load ptr, ptr %10, align 8, !tbaa !8
  %29 = call ptr @strchr(ptr noundef %28, i32 noundef 58) #6
  store ptr %29, ptr %11, align 8, !tbaa !8
  %30 = load ptr, ptr %11, align 8, !tbaa !8
  %31 = icmp ne ptr %30, null
  br i1 %31, label %32, label %61

32:                                               ; preds = %27
  %33 = load ptr, ptr %10, align 8, !tbaa !8
  %34 = getelementptr inbounds i8, ptr %33, i64 0
  %35 = load i8, ptr %34, align 1, !tbaa !17
  %36 = sext i8 %35 to i32
  %37 = icmp ne i32 %36, 58
  br i1 %37, label %38, label %61

38:                                               ; preds = %32
  %39 = load ptr, ptr %11, align 8, !tbaa !8
  %40 = getelementptr inbounds i8, ptr %39, i64 1
  %41 = load i8, ptr %40, align 1, !tbaa !17
  %42 = sext i8 %41 to i32
  %43 = icmp ne i32 %42, 0
  br i1 %43, label %44, label %61

44:                                               ; preds = %38
  call void @llvm.lifetime.start.p0(i64 256, ptr %16) #5
  call void @llvm.lifetime.start.p0(i64 8, ptr %17) #5
  %45 = load ptr, ptr %11, align 8, !tbaa !8
  %46 = load ptr, ptr %10, align 8, !tbaa !8
  %47 = ptrtoint ptr %45 to i64
  %48 = ptrtoint ptr %46 to i64
  %49 = sub i64 %47, %48
  store i64 %49, ptr %17, align 8, !tbaa !18
  %50 = getelementptr inbounds [256 x i8], ptr %16, i64 0, i64 0
  %51 = load ptr, ptr %10, align 8, !tbaa !8
  %52 = load i64, ptr %17, align 8, !tbaa !18
  %53 = call ptr @strncpy(ptr noundef %50, ptr noundef %51, i64 noundef %52) #5
  %54 = load i64, ptr %17, align 8, !tbaa !18
  %55 = getelementptr inbounds nuw [256 x i8], ptr %16, i64 0, i64 %54
  store i8 0, ptr %55, align 1, !tbaa !17
  %56 = getelementptr inbounds [256 x i8], ptr %16, i64 0, i64 0
  %57 = call ptr @ENGINE_by_id(ptr noundef %56)
  store ptr %57, ptr %12, align 8, !tbaa !13
  %58 = load ptr, ptr %11, align 8, !tbaa !8
  %59 = getelementptr inbounds i8, ptr %58, i64 1
  %60 = call noalias ptr @CRYPTO_strdup(ptr noundef %59, ptr noundef @.str.2, i32 noundef 90)
  store ptr %60, ptr %13, align 8, !tbaa !8
  call void @llvm.lifetime.end.p0(i64 8, ptr %17) #5
  call void @llvm.lifetime.end.p0(i64 256, ptr %16) #5
  br label %61

61:                                               ; preds = %44, %38, %32, %27
  %62 = load ptr, ptr %12, align 8, !tbaa !13
  %63 = icmp ne ptr %62, null
  br i1 %63, label %64, label %71

64:                                               ; preds = %61
  %65 = load ptr, ptr %13, align 8, !tbaa !8
  %66 = icmp ne ptr %65, null
  br i1 %66, label %67, label %71

67:                                               ; preds = %64
  %68 = load ptr, ptr %12, align 8, !tbaa !13
  %69 = load ptr, ptr %13, align 8, !tbaa !8
  %70 = call ptr @OSSL_STORE_LOADER_CTX_new(ptr noundef %68, ptr noundef %69)
  store ptr %70, ptr %14, align 8, !tbaa !15
  br label %71

71:                                               ; preds = %67, %64, %61
  %72 = load ptr, ptr %14, align 8, !tbaa !15
  %73 = icmp eq ptr %72, null
  br i1 %73, label %74, label %78

74:                                               ; preds = %71
  %75 = load ptr, ptr %13, align 8, !tbaa !8
  call void @CRYPTO_free(ptr noundef %75, ptr noundef @.str.2, i32 noundef 97)
  %76 = load ptr, ptr %12, align 8, !tbaa !13
  %77 = call i32 @ENGINE_free(ptr noundef %76)
  br label %78

78:                                               ; preds = %74, %71
  %79 = load ptr, ptr %14, align 8, !tbaa !15
  store ptr %79, ptr %5, align 8
  store i32 1, ptr %15, align 4
  br label %80

80:                                               ; preds = %78, %26
  call void @llvm.lifetime.end.p0(i64 8, ptr %14) #5
  call void @llvm.lifetime.end.p0(i64 8, ptr %13) #5
  call void @llvm.lifetime.end.p0(i64 8, ptr %12) #5
  call void @llvm.lifetime.end.p0(i64 8, ptr %11) #5
  call void @llvm.lifetime.end.p0(i64 8, ptr %10) #5
  %81 = load ptr, ptr %5, align 8
  ret ptr %81
}