; Function Attrs: nounwind uwtable
define internal noalias ptr @engine_open(ptr readnone captures(none) %0, ptr noundef %1, ptr readnone captures(none) %2, ptr readnone captures(none) %3) #0 {
  %5 = alloca [256 x i8], align 16
  %6 = tail call i32 @OPENSSL_strncasecmp(ptr noundef %1, ptr noundef nonnull @.str.1, i64 noundef 19) #8
  %7 = icmp eq i32 %6, 0
  br i1 %7, label %8, label %30

8:                                                ; preds = %4
  %9 = getelementptr inbounds nuw i8, ptr %1, i64 19
  %10 = tail call ptr @strchr(ptr noundef nonnull dereferenceable(1) %9, i32 noundef 58) #9
  %.not = icmp eq ptr %10, null
  br i1 %.not, label %.thread, label %11

11:                                               ; preds = %8
  %12 = load i8, ptr %9, align 1, !tbaa !3
  %.not26 = icmp eq i8 %12, 58
  br i1 %.not26, label %.thread, label %13

13:                                               ; preds = %11
  %14 = getelementptr inbounds nuw i8, ptr %10, i64 1
  %15 = load i8, ptr %14, align 1, !tbaa !3
  %.not27 = icmp eq i8 %15, 0
  br i1 %.not27, label %.thread, label %16

16:                                               ; preds = %13
  call void @llvm.lifetime.start.p0(i64 256, ptr nonnull %5) #8
  %17 = ptrtoint ptr %10 to i64
  %18 = ptrtoint ptr %9 to i64
  %19 = sub i64 %17, %18
  %20 = call ptr @strncpy(ptr noundef nonnull %5, ptr noundef nonnull %9, i64 noundef %19) #8
  %21 = getelementptr inbounds nuw [256 x i8], ptr %5, i64 0, i64 %19
  store i8 0, ptr %21, align 1, !tbaa !3
  %22 = call ptr @ENGINE_by_id(ptr noundef nonnull %5) #8
  %23 = call noalias ptr @CRYPTO_strdup(ptr noundef nonnull %14, ptr noundef nonnull @.str.2, i32 noundef 90) #8
  call void @llvm.lifetime.end.p0(i64 256, ptr nonnull %5) #8
  %24 = icmp ne ptr %22, null
  %25 = icmp ne ptr %23, null
  %or.cond = select i1 %24, i1 %25, i1 false
  br i1 %or.cond, label %26, label %.thread

26:                                               ; preds = %16
  %27 = call noalias ptr @CRYPTO_zalloc(i64 noundef 24, ptr noundef nonnull @.str.2, i32 noundef 47) #8
  %.not.i = icmp eq ptr %27, null
  br i1 %.not.i, label %.thread, label %OSSL_STORE_LOADER_CTX_new.exit

OSSL_STORE_LOADER_CTX_new.exit:                   ; preds = %26
  store ptr %22, ptr %27, align 8, !tbaa !6
  %28 = getelementptr inbounds nuw i8, ptr %27, i64 8
  store ptr %23, ptr %28, align 8, !tbaa !12
  br label %30

.thread:                                          ; preds = %8, %11, %13, %16, %26
  %.02332.ph = phi ptr [ %23, %26 ], [ %23, %16 ], [ null, %13 ], [ null, %11 ], [ null, %8 ]
  %.02431.ph = phi ptr [ %22, %26 ], [ %22, %16 ], [ null, %13 ], [ null, %11 ], [ null, %8 ]
  call void @CRYPTO_free(ptr noundef %.02332.ph, ptr noundef nonnull @.str.2, i32 noundef 97) #8
  %29 = call i32 @ENGINE_free(ptr noundef %.02431.ph) #8
  br label %30

30:                                               ; preds = %OSSL_STORE_LOADER_CTX_new.exit, %.thread, %4
  %.0 = phi ptr [ null, %4 ], [ null, %.thread ], [ %27, %OSSL_STORE_LOADER_CTX_new.exit ]
  ret ptr %.0
}